target datalayout = "e-m:e-p270:32:32-p271:32:32-p272:64:64-i64:64-i128:128-f80:128-n8:16:32:64-S128"
target triple = "x86_64-pc-linux-gnu"

%struct.expert_field = type { i32, i32 }

@hf_gsm_a_spare_bits = external global i32, align 4
@ei_gsm_a_dtap_extraneous_data = internal global %struct.expert_field zeroinitializer, align 4
@hf_gsm_a_dtap_ccbs_activation = internal global i32 0, align 4

; Function Attrs: null_pointer_is_valid sspstrong uwtable
define internal zeroext i16 @de_allowed_act(ptr noundef %0, ptr noundef %1, ptr noundef %2, i32 noundef %3, i32 noundef %4, ptr noundef %5, i32 noundef %6) #1 {
  %8 = alloca ptr, align 8
  %9 = alloca ptr, align 8
  %10 = alloca ptr, align 8
  %11 = alloca i32, align 4
  %12 = alloca i32, align 4
  %13 = alloca ptr, align 8
  %14 = alloca i32, align 4
  %15 = alloca i32, align 4
  store ptr %0, ptr %8, align 8
  store ptr %1, ptr %9, align 8
  store ptr %2, ptr %10, align 8
  store i32 %3, ptr %11, align 4
  store i32 %4, ptr %12, align 4
  store ptr %5, ptr %13, align 8
  store i32 %6, ptr %14, align 4
  call void @llvm.lifetime.start.p0(i64 4, ptr %15) #7
  %16 = load i32, ptr %11, align 4
  store i32 %16, ptr %15, align 4
  %17 = load ptr, ptr %9, align 8
  %18 = load i32, ptr @hf_gsm_a_dtap_ccbs_activation, align 4
  %19 = load ptr, ptr %8, align 8
  %20 = load i32, ptr %15, align 4
  %21 = call ptr @proto_tree_add_item(ptr noundef %17, i32 noundef %18, ptr noundef %19, i32 noundef %20, i32 noundef 1, i32 noundef 0)
  %22 = load ptr, ptr %9, align 8
  %23 = load i32, ptr @hf_gsm_a_spare_bits, align 4
  %24 = load ptr, ptr %8, align 8
  %25 = load i32, ptr %15, align 4
  %26 = shl i32 %25, 3
  %27 = add i32 %26, 1
  %28 = call ptr @proto_tree_add_bits_item(ptr noundef %22, i32 noundef %23, ptr noundef %24, i32 noundef %27, i32 noundef 7, i32 noundef 0)
  %29 = load i32, ptr %15, align 4
  %30 = add i32 %29, 1
  store i32 %30, ptr %15, align 4
  %31 = load i32, ptr %12, align 4
  %32 = load i32, ptr %15, align 4
  %33 = load i32, ptr %11, align 4
  %34 = sub i32 %32, %33
  %35 = icmp ugt i32 %31, %34
  br i1 %35, label %36, label %54

36:                                               ; preds = %7
  %37 = load ptr, ptr %9, align 8
  %38 = load ptr, ptr %10, align 8
  %39 = load ptr, ptr %8, align 8
  %40 = load i32, ptr %15, align 4
  %41 = load i32, ptr %12, align 4
  %42 = load i32, ptr %15, align 4
  %43 = load i32, ptr %11, align 4
  %44 = sub i32 %42, %43
  %45 = sub i32 %41, %44
  %46 = call ptr @proto_tree_add_expert(ptr noundef %37, ptr noundef %38, ptr noundef @ei_gsm_a_dtap_extraneous_data, ptr noundef %39, i32 noundef %40, i32 noundef %45)
  %47 = load i32, ptr %12, align 4
  %48 = load i32, ptr %15, align 4
  %49 = load i32, ptr %11, align 4
  %50 = sub i32 %48, %49
  %51 = sub i32 %47, %50
  %52 = load i32, ptr %15, align 4
  %53 = add i32 %52, %51
  store i32 %53, ptr %15, align 4
  br label %54

54:                                               ; preds = %36, %7
  %55 = load i32, ptr %12, align 4
  %56 = trunc i32 %55 to i16
  call void @llvm.lifetime.end.p0(i64 4, ptr %15) #7
  ret i16 %56
}