; Function Attrs: null_pointer_is_valid sspstrong uwtable
define internal noundef zeroext i16 @de_allowed_act(ptr noundef %0, ptr noundef %1, ptr noundef %2, i32 noundef %3, i32 noundef %4, ptr readnone captures(none) %5, i32 %6) #1 {
  %8 = load i32, ptr @hf_gsm_a_dtap_ccbs_activation, align 4
  %9 = tail call ptr @proto_tree_add_item(ptr noundef %1, i32 noundef %8, ptr noundef %0, i32 noundef %3, i32 noundef 1, i32 noundef 0)
  %10 = load i32, ptr @hf_gsm_a_spare_bits, align 4
  %11 = shl i32 %3, 3
  %12 = or disjoint i32 %11, 1
  %13 = tail call ptr @proto_tree_add_bits_item(ptr noundef %1, i32 noundef %10, ptr noundef %0, i32 noundef %12, i32 noundef 7, i32 noundef 0)
  %14 = icmp ugt i32 %4, 1
  br i1 %14, label %15, label %19

15:                                               ; preds = %7
  %16 = add i32 %3, 1
  %17 = add i32 %4, -1
  %18 = tail call ptr @proto_tree_add_expert(ptr noundef %1, ptr noundef %2, ptr noundef nonnull @ei_gsm_a_dtap_extraneous_data, ptr noundef %0, i32 noundef %16, i32 noundef %17)
  br label %19

19:                                               ; preds = %15, %7
  %20 = trunc i32 %4 to i16
  ret i16 %20
}